(dp0
S'boxes'
p1
(lp2
(I335
I348
I50
I57
tp3
a(I309
I311
I256
I260
tp4
a(I450
I463
I243
I291
tp5
a(I364
I376
I207
I219
tp6
a(I256
I267
I136
I147
tp7
a(I291
I299
I198
I214
tp8
a(I414
I418
I355
I358
tp9
a(I204
I219
I256
I291
tp10
a(I282
I289
I171
I183
tp11
a(I175
I183
I98
I105
tp12
a(I325
I328
I175
I183
tp13
a(I393
I404
I219
I226
tp14
a(I183
I187
I178
I183
tp15
a(I390
I400
I272
I280
tp16
a(I390
I393
I63
I67
tp17
a(I397
I400
I280
I284
tp18
a(I414
I421
I254
I268
tp19
a(I357
I361
I314
I316
tp20
a(I226
I232
I232
I236
tp21
a(I219
I223
I169
I171
tp22
a(I348
I357
I291
I308
tp23
a(I274
I285
I219
I223
tp24
a(I262
I270
I298
I304
tp25
a(I400
I404
I280
I283
tp26
a(I212
I226
I243
I250
tp27
a(I404
I406
I105
I109
tp28
a(I378
I383
I50
I54
tp29
a(I190
I195
I115
I118
tp30
a(I372
I378
I302
I323
tp31
a(I400
I404
I189
I198
tp32
a(I378
I386
I304
I316
tp33
a(I404
I406
I295
I302
tp34
a(I204
I212
I105
I111
tp35
a(I104
I111
I171
I175
tp36
a(I245
I248
I67
I75
tp37
a(I111
I117
I171
I183
tp38
a(I83
I89
I247
I268
tp39
a(I59
I68
I243
I256
tp40
a(I230
I232
I82
I87
tp41
a(I92
I94
I232
I236
tp42
a(I277
I282
I192
I194
tp43
a(I230
I241
I82
I87
tp44
a(I248
I256
I123
I134
tp45
a(I418
I421
I272
I280
tp46
a(I372
I376
I278
I284
tp47
a(I311
I314
I230
I232
tp48
a(I97
I104
I232
I243
tp49
a(I75
I80
I226
I236
tp50
a(I339
I342
I43
I45
tp51
a(I219
I226
I63
I75
tp52
a(I285
I289
I115
I127
tp53
a(I256
I262
I298
I304
tp54
a(I204
I219
I183
I194
tp55
a(I256
I262
I160
I175
tp56
a(I115
I117
I183
I187
tp57
a(I335
I348
I67
I75
tp58
a(I180
I183
I118
I123
tp59
a(I348
I353
I320
I326
tp60
a(I421
I435
I26
I50
tp61
a(I335
I339
I57
I67
tp62
a(I122
I126
I271
I275
tp63
a(I364
I378
I87
I98
tp64
a(I223
I226
I87
I93
tp65
a(I289
I291
I247
I250
tp66
a(I285
I289
I105
I108
tp67
a(I277
I285
I194
I205
tp68
a(I169
I175
I140
I147
tp69
a(I226
I230
I246
I247
tp70
a(I175
I183
I130
I136
tp71
a(I400
I404
I108
I109
tp72
a(I101
I104
I142
I151
tp73
a(I162
I173
I111
I115
tp74
a(I414
I421
I254
I256
tp75
a(I237
I241
I75
I82
tp76
a(I212
I216
I169
I171
tp77
a(I147
I155
I194
I201
tp78
a(I369
I372
I260
I263
tp79
a(I289
I299
I275
I280
tp80
a(I262
I270
I57
I63
tp81
a(I108
I111
I236
I238
tp82
a(I342
I346
I328
I332
tp83
a(I30
I53
I194
I207
tp84
a(I361
I372
I311
I316
tp85
a(I274
I277
I158
I160
tp86
a(I364
I369
I79
I82
tp87
a(I406
I435
I0
I26
tp88
a(I348
I353
I45
I50
tp89
a(I187
I190
I250
I268
tp90
a(I274
I277
I189
I194
tp91
a(I440
I450
I256
I268
tp92
a(I353
I372
I316
I328
tp93
a(I361
I364
I63
I70
tp94
a(I291
I296
I111
I115
tp95
a(I386
I390
I260
I263
tp96
a(I364
I369
I39
I43
tp97
a(I400
I406
I198
I201
tp98
a(I232
I237
I63
I67
tp99
a(I232
I237
I275
I280
tp100
a(I414
I418
I301
I304
tp101
a(I75
I80
I205
I207
tp102
a(I406
I411
I130
I160
tp103
a(I180
I183
I127
I130
tp104
a(I306
I311
I280
I291
tp105
a(I351
I357
I33
I37
tp106
a(I320
I335
I147
I160
tp107
a(I386
I393
I280
I291
tp108
a(I386
I400
I183
I194
tp109
a(I219
I223
I75
I79
tp110
a(I155
I162
I256
I260
tp111
a(I400
I404
I111
I126
tp112
a(I400
I404
I96
I98
tp113
a(I226
I232
I280
I284
tp114
a(I204
I209
I102
I105
tp115
a(I147
I169
I142
I147
tp116
a(I285
I291
I198
I219
tp117
a(I108
I111
I187
I189
tp118
a(I372
I376
I337
I339
tp119
a(I282
I285
I109
I111
tp120
a(I400
I404
I316
I320
tp121
a(I83
I89
I171
I175
tp122
a(I104
I108
I205
I219
tp123
a(I64
I68
I256
I260
tp124
a(I342
I346
I66
I67
tp125
a(I94
I97
I232
I238
tp126
a(I190
I204
I194
I291
tp127
a(I212
I219
I75
I82
tp128
a(I53
I59
I194
I205
tp129
a(I159
I166
I201
I205
tp130
a(I219
I223
I232
I243
tp131
a(I183
I190
I268
I280
tp132
a(I270
I277
I291
I304
tp133
a(I414
I435
I304
I339
tp134
a(I320
I328
I291
I298
tp135
a(I372
I378
I63
I75
tp136
a(I285
I289
I250
I253
tp137
a(I397
I404
I70
I75
tp138
a(I267
I270
I226
I230
tp139
a(I372
I376
I301
I302
tp140
a(I325
I335
I183
I194
tp141
a(I393
I397
I280
I286
tp142
a(I274
I282
I284
I286
tp143
a(I256
I262
I123
I127
tp144
a(I226
I232
I63
I70
tp145
a(I265
I267
I291
I295
tp146
a(I348
I378
I98
I171
tp147
a(I198
I204
I178
I194
tp148
a(I30
I38
I207
I214
tp149
a(I364
I372
I183
I207
tp150
a(I314
I320
I268
I286
tp151
a(I89
I94
I236
I238
tp152
a(I35
I38
I223
I226
tp153
a(I219
I226
I254
I268
tp154
a(I155
I162
I111
I118
tp155
a(I256
I260
I127
I130
tp156
a(I378
I393
I291
I304
tp157
a(I75
I83
I207
I226
tp158
a(I291
I296
I214
I219
tp159
a(I383
I393
I219
I232
tp160
a(I232
I237
I79
I82
tp161
a(I219
I241
I219
I232
tp162
a(I311
I320
I243
I256
tp163
a(I187
I190
I115
I118
tp164
a(I376
I378
I45
I50
tp165
a(I59
I83
I263
I268
tp166
a(I59
I89
I98
I171
tp167
a(I126
I141
I123
I130
tp168
a(I429
I435
I243
I250
tp169
a(I183
I187
I205
I207
tp170
a(I397
I406
I154
I160
tp171
a(I0
I59
I243
I291
tp172
a(I202
I204
I105
I109
tp173
a(I256
I260
I232
I236
tp174
a(I226
I232
I247
I256
tp175
a(I75
I80
I183
I189
tp176
a(I393
I397
I130
I133
tp177
a(I173
I175
I198
I201
tp178
a(I296
I299
I272
I275
tp179
a(I393
I400
I311
I316
tp180
a(I414
I421
I166
I183
tp181
a(I173
I175
I123
I127
tp182
a(I429
I435
I291
I304
tp183
a(I346
I348
I320
I323
tp184
a(I169
I173
I126
I127
tp185
a(I117
I175
I147
I194
tp186
a(I378
I383
I337
I339
tp187
a(I87
I97
I238
I243
tp188
a(I64
I68
I194
I198
tp189
a(I104
I111
I238
I243
tp190
a(I147
I175
I98
I111
tp191
a(I219
I277
I98
I123
tp192
a(I267
I270
I54
I57
tp193
a(I248
I253
I205
I214
tp194
a(I175
I180
I272
I275
tp195
a(I198
I202
I166
I171
tp196
a(I411
I435
I194
I219
tp197
a(I372
I378
I302
I304
tp198
a(I364
I372
I263
I286
tp199
a(I83
I87
I214
I219
tp200
a(I393
I397
I90
I93
tp201
a(I414
I421
I339
I352
tp202
a(I175
I190
I136
I171
tp203
a(I245
I248
I57
I61
tp204
a(I30
I45
I232
I243
tp205
a(I175
I180
I241
I260
tp206
a(I426
I429
I256
I260
tp207
a(I285
I289
I169
I171
tp208
a(I108
I117
I151
I154
tp209
a(I320
I335
I50
I75
tp210
a(I198
I212
I160
I166
tp211
a(I83
I87
I246
I247
tp212
a(I386
I393
I194
I207
tp213
a(I232
I248
I171
I219
tp214
a(I202
I209
I175
I178
tp215
a(I190
I232
I123
I160
tp216
a(I335
I348
I147
I219
tp217
a(I212
I216
I96
I98
tp218
a(I0
I232
I291
I386
tp219
a(I369
I378
I39
I45
tp220
a(I248
I291
I75
I98
tp221
a(I251
I253
I226
I230
tp222
a(I411
I421
I183
I194
tp223
a(I386
I390
I109
I115
tp224
a(I291
I296
I192
I194
tp225
a(I204
I232
I194
I219
tp226
a(I342
I348
I332
I339
tp227
a(I378
I383
I93
I98
tp228
a(I89
I92
I147
I151
tp229
a(I187
I190
I219
I238
tp230
a(I72
I75
I198
I201
tp231
a(I383
I386
I284
I291
tp232
a(I162
I166
I219
I223
tp233
a(I426
I450
I280
I291
tp234
a(I393
I406
I160
I183
tp235
a(I353
I357
I48
I50
tp236
a(I378
I406
I0
I50
tp237
a(I400
I406
I263
I268
tp238
a(I117
I122
I268
I275
tp239
a(I364
I372
I82
I87
tp240
a(I175
I180
I183
I194
tp241
a(I348
I357
I334
I339
tp242
a(I364
I372
I57
I70
tp243
a(I342
I346
I42
I43
tp244
a(I390
I400
I334
I339
tp245
a(I141
I145
I250
I253
tp246
a(I393
I397
I302
I304
tp247
a(I400
I406
I304
I316
tp248
a(I59
I64
I256
I263
tp249
a(I87
I89
I238
I243
tp250
a(I59
I75
I263
I268
tp251
a(I248
I256
I140
I147
tp252
a(I253
I256
I166
I171
tp253
a(I251
I253
I63
I67
tp254
a(I383
I386
I147
I151
tp255
a(I393
I400
I194
I201
tp256
a(I364
I369
I286
I291
tp257
a(I383
I400
I243
I256
tp258
a(I175
I262
I0
I50
tp259
a(I169
I175
I272
I280
tp260
a(I104
I108
I175
I178
tp261
a(I386
I390
I337
I339
tp262
a(I207
I209
I98
I102
tp263
a(I241
I248
I75
I87
tp264
a(I411
I414
I178
I183
tp265
a(I0
I175
I0
I98
tp266
a(I64
I68
I204
I207
tp267
a(I241
I253
I50
I57
tp268
a(I393
I400
I93
I98
tp269
a(I390
I393
I130
I134
tp270
a(I328
I357
I26
I33
tp271
a(I138
I147
I207
I219
tp272
a(I309
I311
I250
I254
tp273
a(I198
I204
I178
I183
tp274
a(I80
I83
I250
I263
tp275
a(I256
I262
I61
I63
tp276
a(I314
I318
I217
I219
tp277
a(I381
I383
I232
I236
tp278
a(I53
I57
I217
I219
tp279
a(I138
I147
I243
I250
tp280
a(I314
I328
I26
I30
tp281
a(I440
I443
I268
I275
tp282
a(I232
I237
I289
I291
tp283
a(I68
I72
I210
I211
tp284
a(I219
I223
I160
I163
tp285
a(I328
I332
I314
I316
tp286
a(I277
I282
I48
I50
tp287
a(I280
I282
I147
I151
tp288
a(I418
I421
I45
I50
tp289
a(I130
I133
I130
I134
tp290
a(I335
I342
I45
I50
tp291
a(I372
I376
I189
I205
tp292
a(I72
I75
I207
I211
tp293
a(I256
I262
I171
I175
tp294
a(I390
I393
I272
I280
tp295
a(I195
I198
I109
I111
tp296
a(I241
I245
I160
I164
tp297
a(I183
I187
I102
I105
tp298
a(I187
I190
I194
I207
tp299
a(I141
I162
I219
I243
tp300
a(I75
I83
I171
I183
tp301
a(I280
I282
I183
I187
tp302
a(I45
I50
I207
I211
tp303
a(I411
I414
I219
I226
tp304
a(I400
I406
I207
I214
tp305
a(I198
I202
I108
I109
tp306
a(I299
I306
I147
I151
tp307
a(I133
I162
I268
I291
tp308
a(I111
I117
I187
I194
tp309
a(I426
I429
I291
I298
tp310
a(I162
I190
I280
I291
tp311
a(I162
I169
I268
I280
tp312
a(I162
I166
I136
I142
tp313
a(I411
I414
I256
I263
tp314
a(I219
I237
I275
I280
tp315
a(I232
I237
I247
I250
tp316
a(I306
I314
I291
I304
tp317
a(I162
I175
I232
I263
tp318
a(I130
I133
I201
I205
tp319
a(I237
I241
I63
I66
tp320
a(I320
I325
I308
I311
tp321
a(I277
I285
I111
I147
tp322
a(I364
I369
I254
I263
tp323
a(I212
I216
I250
I256
tp324
a(I241
I253
I219
I223
tp325
a(I282
I285
I147
I171
tp326
a(I235
I241
I243
I247
tp327
a(I183
I190
I171
I178
tp328
a(I400
I404
I214
I219
tp329
a(I421
I435
I339
I363
tp330
a(I147
I155
I263
I268
tp331
a(I378
I381
I98
I102
tp332
a(I378
I400
I339
I363
tp333
a(I204
I212
I243
I256
tp334
a(I190
I195
I171
I175
tp335
a(I260
I267
I295
I298
tp336
a(I226
I248
I87
I98
tp337
a(I409
I411
I232
I236
tp338
a(I323
I325
I194
I198
tp339
a(I89
I94
I181
I183
tp340
a(I237
I241
I280
I291
tp341
a(I169
I173
I139
I140
tp342
a(I232
I248
I123
I147
tp343
a(I335
I342
I67
I75
tp344
a(I169
I175
I205
I207
tp345
a(I390
I393
I87
I93
tp346
a(I87
I89
I183
I187
tp347
a(I348
I353
I332
I334
tp348
a(I89
I92
I154
I158
tp349
a(I226
I230
I286
I291
tp350
a(I0
I59
I98
I194
tp351
a(I418
I429
I298
I304
tp352
a(I169
I173
I271
I272
tp353
a(I390
I393
I175
I183
tp354
a(I435
I450
I243
I256
tp355
a(I130
I133
I140
I142
tp356
a(I314
I320
I219
I232
tp357
a(I111
I117
I260
I268
tp358
a(I260
I262
I175
I187
tp359
a(I320
I328
I311
I316
tp360
a(I155
I159
I198
I204
tp361
a(I320
I328
I201
I207
tp362
a(I193
I195
I183
I187
tp363
a(I376
I378
I295
I302
tp364
a(I357
I361
I73
I75
tp365
a(I111
I115
I150
I151
tp366
a(I418
I421
I147
I166
tp367
a(I386
I390
I130
I145
tp368
a(I351
I353
I316
I320
tp369
a(I291
I296
I164
I166
tp370
a(I314
I318
I298
I302
tp371
a(I133
I138
I241
I247
tp372
a(I418
I421
I352
I358
tp373
a(I83
I87
I175
I178
tp374
a(I262
I270
I39
I45
tp375
a(I190
I195
I187
I189
tp376
a(I253
I256
I219
I226
tp377
a(I418
I421
I298
I304
tp378
a(I328
I335
I160
I183
tp379
a(I376
I378
I75
I79
tp380
a(I147
I162
I243
I256
tp381
a(I409
I429
I243
I247
tp382
a(I59
I64
I194
I201
tp383
a(I421
I463
I147
I194
tp384
a(I325
I328
I194
I201
tp385
a(I117
I133
I280
I291
tp386
a(I241
I245
I73
I75
tp387
a(I133
I141
I140
I147
tp388
a(I357
I361
I298
I304
tp389
a(I364
I372
I219
I238
tp390
a(I282
I285
I183
I189
tp391
a(I219
I223
I90
I93
tp392
a(I97
I101
I174
I175
tp393
a(I147
I155
I134
I136
tp394
a(I162
I166
I115
I118
tp395
a(I248
I262
I298
I316
tp396
a(I141
I147
I136
I147
tp397
a(I311
I314
I268
I275
tp398
a(I325
I328
I298
I304
tp399
a(I173
I175
I207
I219
tp400
a(I212
I219
I98
I111
tp401
a(I183
I190
I127
I136
tp402
a(I262
I270
I219
I226
tp403
a(I204
I212
I178
I183
tp404
a(I406
I411
I45
I50
tp405
a(I187
I190
I115
I127
tp406
a(I378
I383
I70
I75
tp407
a(I223
I232
I166
I171
tp408
a(I155
I159
I139
I142
tp409
a(I115
I117
I147
I151
tp410
a(I97
I101
I142
I145
tp411
a(I291
I299
I43
I50
tp412
a(I282
I285
I280
I286
tp413
a(I320
I348
I75
I147
tp414
a(I323
I325
I298
I302
tp415
a(I424
I426
I291
I295
tp416
a(I183
I187
I118
I121
tp417
a(I38
I45
I223
I232
tp418
a(I311
I314
I243
I250
tp419
a(I314
I320
I302
I304
tp420
a(I83
I89
I207
I214
tp421
a(I400
I404
I183
I187
tp422
a(I406
I414
I263
I272
tp423
a(I183
I190
I207
I219
tp424
a(I147
I155
I111
I123
tp425
a(I335
I339
I320
I323
tp426
a(I262
I267
I226
I232
tp427
a(I141
I145
I259
I260
tp428
a(I397
I400
I91
I93
tp429
a(I183
I187
I219
I222
tp430
a(I386
I393
I115
I130
tp431
a(I318
I335
I207
I219
tp432
a(I291
I294
I160
I164
tp433
a(I369
I372
I304
I311
tp434
a(I285
I291
I26
I37
tp435
a(I94
I101
I226
I232
tp436
a(I162
I169
I223
I232
tp437
a(I183
I187
I126
I127
tp438
a(I372
I376
I60
I61
tp439
a(I438
I440
I256
I260
tp440
a(I59
I117
I268
I291
tp441
a(I111
I117
I136
I142
tp442
a(I175
I190
I75
I98
tp443
a(I409
I411
I256
I260
tp444
a(I270
I277
I123
I127
tp445
a(I378
I383
I102
I105
tp446
a(I138
I141
I219
I230
tp447
a(I433
I440
I272
I275
tp448
a(I155
I159
I214
I219
tp449
a(I400
I406
I356
I363
tp450
a(I383
I386
I50
I57
tp451
a(I0
I30
I194
I243
tp452
a(I404
I406
I136
I140
tp453
a(I245
I248
I230
I232
tp454
a(I190
I198
I189
I194
tp455
a(I126
I133
I142
I147
tp456
a(I274
I277
I50
I54
tp457
a(I226
I230
I70
I73
tp458
a(I145
I147
I250
I254
tp459
a(I141
I147
I194
I198
tp460
a(I89
I104
I123
I142
tp461
a(I175
I183
I275
I280
tp462
a(I256
I260
I50
I53
tp463
a(I190
I198
I118
I123
tp464
a(I393
I397
I323
I326
tp465
a(I280
I282
I171
I175
tp466
a(I285
I289
I197
I198
tp467
a(I393
I400
I226
I243
tp468
a(I386
I390
I79
I87
tp469
a(I232
I291
I316
I386
tp470
a(I421
I426
I295
I298
tp471
a(I166
I169
I140
I142
tp472
a(I262
I277
I63
I75
tp473
a(I126
I133
I268
I280
tp474
a(I342
I346
I311
I314
tp475
a(I372
I376
I323
I326
tp476
a(I175
I180
I121
I123
tp477
a(I262
I378
I0
I26
tp478
a(I372
I376
I183
I187
tp479
a(I285
I289
I278
I280
tp480
a(I169
I173
I204
I205
tp481
a(I195
I198
I111
I118
tp482
a(I342
I346
I319
I320
tp483
a(I89
I147
I98
I123
tp484
a(I155
I159
I266
I268
tp485
a(I180
I183
I183
I187
tp486
a(I97
I101
I192
I194
tp487
a(I435
I463
I291
I386
tp488
a(I68
I72
I243
I250
tp489
a(I291
I314
I26
I33
tp490
a(I155
I159
I133
I134
tp491
a(I147
I152
I207
I214
tp492
a(I133
I136
I194
I198
tp493
a(I348
I364
I75
I98
tp494
a(I141
I147
I260
I268
tp495
a(I411
I463
I194
I243
tp496
a(I299
I306
I45
I50
tp497
a(I248
I260
I214
I219
tp498
a(I195
I204
I109
I111
tp499
a(I378
I435
I363
I386
tp500
a(I212
I219
I171
I183
tp501
a(I282
I291
I45
I50
tp502
a(I414
I418
I163
I166
tp503
a(I400
I406
I263
I280
tp504
a(I357
I361
I337
I339
tp505
a(I219
I226
I93
I98
tp506
a(I285
I311
I280
I291
tp507
a(I226
I230
I263
I268
tp508
a(I421
I429
I254
I256
tp509
a(I372
I376
I238
I241
tp510
a(I59
I75
I171
I194
tp511
a(I38
I42
I222
I223
tp512
a(I133
I141
I263
I268
tp513
a(I232
I248
I232
I243
tp514
a(I404
I411
I260
I263
tp515
a(I364
I369
I54
I57
tp516
a(I248
I251
I136
I140
tp517
a(I141
I147
I205
I207
tp518
a(I381
I383
I243
I247
tp519
a(I299
I320
I123
I147
tp520
a(I175
I180
I105
I109
tp521
a(I335
I342
I323
I339
tp522
a(I378
I383
I147
I164
tp523
a(I342
I348
I43
I50
tp524
a(I270
I277
I54
I63
tp525
a(I117
I126
I275
I280
tp526
a(I372
I376
I45
I48
tp527
a(I372
I376
I85
I87
tp528
a(I270
I274
I53
I54
tp529
a(I429
I443
I275
I280
tp530
a(I397
I400
I308
I311
tp531
a(I262
I277
I304
I316
tp532
a(I285
I291
I187
I189
tp533
a(I296
I306
I111
I123
tp534
a(I386
I390
I181
I183
tp535
a(I383
I386
I205
I207
tp536
a(I406
I421
I26
I45
tp537
a(I253
I256
I63
I70
tp538
a(I97
I104
I194
I207
tp539
a(I400
I406
I98
I105
tp540
a(I357
I378
I26
I39
tp541
a(I117
I122
I136
I140
tp542
a(I409
I411
I226
I230
tp543
a(I318
I320
I286
I295
tp544
a(I241
I245
I229
I232
tp545
a(I364
I376
I171
I183
tp546
a(I306
I335
I39
I50
tp547
a(I335
I339
I42
I45
tp548
a(I421
I426
I256
I266
tp549
a(I183
I190
I98
I102
tp550
a(I219
I232
I171
I194
tp551
a(I277
I291
I98
I105
tp552
a(I411
I414
I286
I291
tp553
a(I400
I406
I109
I111
tp554
a(I209
I212
I171
I178
tp555
a(I175
I183
I171
I183
tp556
a(I270
I274
I39
I43
tp557
a(I306
I320
I98
I123
tp558
a(I122
I126
I145
I147
tp559
a(I94
I97
I194
I201
tp560
a(I262
I265
I183
I187
tp561
a(I80
I89
I201
I207
tp562
a(I108
I111
I151
I154
tp563
a(I328
I335
I194
I207
tp564
a(I68
I72
I201
I204
tp565
a(I59
I68
I214
I219
tp566
a(I260
I262
I57
I61
tp567
a(I339
I348
I57
I61
tp568
a(I418
I421
I272
I284
tp569
a(I190
I198
I160
I171
tp570
a(I303
I306
I39
I45
tp571
a(I357
I364
I291
I298
tp572
a(I87
I89
I243
I247
tp573
a(I306
I320
I304
I316
tp574
a(I357
I361
I63
I66
tp575
a(I94
I97
I175
I183
tp576
a(I30
I35
I214
I226
tp577
a(I209
I212
I98
I105
tp578
a(I274
I277
I127
I136
tp579
a(I94
I104
I175
I183
tp580
a(I406
I409
I50
I54
tp581
a(I390
I400
I316
I323
tp582
a(I45
I75
I219
I243
tp583
a(I328
I335
I304
I308
tp584
a(I270
I274
I222
I223
tp585
a(I364
I369
I337
I339
tp586
a(I400
I406
I140
I154
tp587
a(I245
I256
I160
I166
tp588
a(I104
I108
I229
I238
tp589
a(I277
I306
I291
I316
tp590
a(I291
I335
I316
I339
tp591
a(I166
I169
I127
I130
tp592
a(I335
I348
I291
I311
tp593
a(I111
I115
I256
I260
tp594
a(I30
I38
I226
I232
tp595
a(I435
I463
I0
I50
tp596
a(I393
I400
I127
I130
tp597
a(I291
I320
I50
I98
tp598
a(I262
I267
I45
I48
tp599
a(I180
I183
I268
I275
tp600
a(I299
I306
I268
I280
tp601
a(I138
I141
I236
I243
tp602
a(I166
I169
I201
I207
tp603
a(I226
I230
I256
I259
tp604
a(I89
I92
I160
I164
tp605
a(I141
I150
I123
I127
tp606
a(I289
I291
I189
I194
tp607
a(I378
I386
I105
I147
tp608
a(I393
I397
I126
I127
tp609
a(I414
I418
I280
I289
tp610
a(I248
I256
I70
I75
tp611
a(I386
I390
I304
I307
tp612
a(I411
I421
I219
I232
tp613
a(I195
I198
I183
I189
tp614
a(I277
I282
I105
I111
tp615
a(I155
I159
I118
I121
tp616
a(I204
I212
I75
I87
tp617
a(I68
I75
I211
I219
tp618
a(I348
I364
I50
I63
tp619
a(I318
I320
I147
I158
tp620
a(I270
I277
I223
I226
tp621
a(I364
I369
I238
I247
tp622
a(I414
I421
I358
I363
tp623
a(I253
I256
I295
I298
tp624
a(I175
I219
I50
I75
tp625
a(I190
I195
I93
I98
tp626
a(I226
I232
I250
I256
tp627
a(I291
I378
I339
I386
tp628
a(I409
I411
I219
I223
tp629
a(I219
I241
I50
I63
tp630
a(I190
I204
I75
I93
tp631
a(I262
I285
I26
I39
tp632
a(I68
I72
I194
I197
tp633
a(I270
I274
I150
I164
tp634
a(I253
I256
I50
I54
tp635
a(I372
I376
I219
I226
tp636
a(I270
I285
I286
I291
tp637
a(I393
I406
I201
I207
tp638
a(I253
I256
I211
I214
tp639
a(I159
I162
I140
I142
tp640
a(I104
I117
I154
I171
tp641
a(I277
I282
I217
I219
tp642
a(I219
I226
I280
I291
tp643
a(I183
I187
I266
I268
tp644
a(I397
I400
I268
I272
tp645
a(I237
I241
I160
I163
tp646
a(I147
I152
I136
I142
tp647
a(I383
I393
I219
I243
tp648
a(I173
I175
I136
I140
tp649
a(I248
I253
I291
I298
tp650
a(I155
I178
I194
I198
tp651
a(I320
I325
I198
I201
tp652
a(I318
I320
I207
I219
tp653
a(I318
I320
I160
I164
tp654
a(I277
I291
I50
I75
tp655
a(I400
I404
I352
I356
tp656
a(I285
I289
I219
I222
tp657
a(I280
I282
I280
I284
tp658
a(I80
I83
I250
I256
tp659
a(I418
I463
I50
I147
tp660
a(I111
I115
I250
I254
tp661
a(I406
I411
I291
I302
tp662
a(I75
I80
I260
I263
tp663
a(I325
I328
I160
I166
tp664
a(I147
I159
I214
I219
tp665
a(I89
I111
I243
I268
tp666
a(I438
I440
I268
I272
tp667
a(I256
I262
I61
I75
tp668
a(I400
I404
I139
I140
tp669
a(I285
I289
I183
I187
tp670
a(I248
I256
I232
I238
tp671
a(I193
I195
I111
I115
tp672
a(I296
I299
I123
I130
tp673
a(I169
I173
I229
I230
tp674
a(I45
I59
I219
I243
tp675
a(I443
I450
I268
I280
tp676
a(I364
I367
I250
I254
tp677
a(I393
I406
I50
I70
tp678
a(I226
I230
I160
I163
tp679
a(I152
I155
I140
I142
tp680
a(I232
I248
I291
I316
tp681
a(I101
I104
I207
I214
tp682
a(I262
I270
I147
I166
tp683
a(I216
I219
I91
I98
tp684
a(I256
I260
I214
I219
tp685
a(I348
I353
I67
I70
tp686
a(I111
I133
I194
I201
tp687
a(I378
I386
I75
I82
tp688
a(I311
I320
I232
I268
tp689
a(I138
I141
I260
I263
tp690
a(I267
I270
I291
I298
tp691
a(I406
I409
I160
I164
tp692
a(I328
I335
I291
I308
tp693
a(I204
I219
I219
I243
tp694
a(I198
I219
I111
I123
tp695
a(I253
I262
I219
I232
tp696
a(I320
I348
I219
I291
tp697
a(I232
I245
I169
I171
tp698
a(I386
I393
I50
I63
tp699
a(I299
I303
I42
I45
tp700
a(I101
I104
I230
I232
tp701
a(I291
I306
I98
I111
tp702
a(I383
I400
I207
I219
tp703
a(I348
I364
I171
I291
tp704
a(I406
I409
I304
I308
tp705
a(I348
I357
I70
I75
tp706
a(I138
I141
I198
I207
tp707
a(I256
I260
I60
I61
tp708
a(I230
I232
I272
I275
tp709
a(I241
I245
I289
I291
tp710
a(I393
I397
I157
I160
tp711
a(I152
I155
I211
I214
tp712
a(I294
I296
I123
I127
tp713
a(I406
I411
I361
I363
tp714
a(I393
I397
I271
I272
tp715
a(I248
I253
I67
I70
tp716
a(I212
I219
I160
I164
tp717
a(I78
I80
I256
I260
tp718
a(I386
I393
I323
I328
tp719
a(I232
I262
I147
I160
tp720
a(I241
I245
I57
I63
tp721
a(I126
I130
I130
I136
tp722
a(I104
I126
I123
I136
tp723
a(I289
I291
I105
I109
tp724
a(I364
I367
I291
I295
tp725
a(I226
I230
I85
I87
tp726
a(I104
I111
I136
I147
tp727
a(I386
I393
I256
I260
tp728
a(I397
I400
I151
I154
tp729
asS'adj'
p730
(dp731
g3
(lp732
g619
ag291
ag524
ag210
ag62
ag568
asg4
(lp733
g163
ag689
asg5
(lp734
g488
ag496
ag355
ag92
ag676
ag234
asg479
(lp735
g546
ag150
asg7
(lp736
g720
ag683
ag252
asg8
(lp737
g117
ag159
asg9
(lp738
g623
ag373
asg10
(lp739
g219
ag127
ag154
ag334
ag324
ag315
ag643
asg11
(lp740
g326
ag208
ag302
ag391
ag670
ag466
asg12
(lp741
g443
ag191
ag550
ag298
ag521
asg13
(lp742
g141
ag379
asg14
(lp743
g703
ag329
ag648
ag468
asg15
(lp744
g556
ag328
asg16
(lp745
g108
ag142
ag18
ag504
ag715
ag645
asg17
(lp746
g678
ag699
asg481
(lp747
g603
ag345
asg19
(lp748
g509
ag549
ag314
ag423
asg21
(lp749
g514
ag162
asg22
(lp750
g501
ag551
ag408
asg23
(lp751
g593
ag704
ag572
ag389
asg24
(lp752
g642
ag117
ag621
ag585
ag657
asg228
(lp753
g332
ag64
asg27
(lp754
g694
ag131
ag334
ag324
ag627
ag70
ag175
asg28
(lp755
g540
ag554
ag72
asg29
(lp756
g165
ag237
ag451
asg30
(lp757
g406
ag464
ag482
ag672
asg31
(lp758
g157
ag33
ag140
ag364
ag434
ag85
ag93
ag476
asg604
(lp759
g175
ag154
asg34
(lp760
g662
asg230
(lp761
g424
ag127
ag430
asg36
(lp762
g641
ag580
ag38
ag261
asg37
(lp763
g264
ag716
ag611
ag387
asg38
(lp764
g186
ag641
ag57
ag36
asg39
(lp765
g666
ag441
ag275
ag212
ag573
ag275
ag166
asg40
(lp766
g172
ag583
ag249
ag124
ag489
asg41
(lp767
g161
asg42
(lp768
g436
ag126
ag152
asg358
(lp769
g239
ag441
ag666
ag594
asg43
(lp770
g68
ag91
asg608
(lp771
g523
ag255
ag147
ag224
ag446
ag224
ag431
ag431
ag368
ag368
asg44
(lp772
g337
ag726
ag337
ag264
ag161
ag76
asg45
(lp773
g192
ag343
ag144
ag156
asg47
(lp774
g199
ag199
asg48
(lp775
g689
ag357
asg49
(lp776
g666
ag589
ag190
ag436
ag701
ag126
ag188
asg50
(lp777
g583
ag158
asg51
(lp778
g244
ag524
ag291
ag548
asg52
(lp779
g110
ag625
ag630
ag145
ag458
asg53
(lp780
g322
ag322
asg54
(lp781
g624
asg55
(lp782
g226
ag148
ag551
ag404
ag501
asg56
(lp783
g683
ag720
ag588
ag253
ag359
asg490
(lp784
g435
ag478
ag281
asg668
(lp785
g81
ag473
ag221
ag708
ag567
ag538
ag611
asg58
(lp786
g686
ag706
ag414
ag210
ag62
ag125
asg59
(lp787
g417
ag477
asg26
(lp788
g504
ag18
asg61
(lp789
g660
ag596
ag88
ag537
ag289
asg62
(lp790
g210
ag3
ag568
ag58
asg63
(lp791
g474
ag526
ag239
asg64
(lp792
g147
ag228
ag494
ag240
ag528
asg65
(lp793
g726
ag337
ag506
ag392
asg66
(lp794
g137
asg67
(lp795
g552
ag724
asg68
(lp796
g91
ag43
ag467
ag117
asg69
(lp797
g203
ag186
ag472
ag116
ag342
ag649
asg70
(lp798
g27
ag175
asg71
(lp799
g649
ag203
ag402
ag104
asg72
(lp800
g554
ag28
asg684
(lp801
g401
ag392
ag506
ag218
asg73
(lp802
g727
ag461
ag411
asg74
(lp803
g155
ag191
ag395
asg92
(lp804
g667
ag282
ag676
ag5
ag355
ag440
asg76
(lp805
g387
ag264
ag44
ag161
asg77
(lp806
g555
ag501
asg78
(lp807
g186
ag460
ag651
ag361
asg79
(lp808
g199
ag323
asg80
(lp809
g507
ag480
ag507
ag601
ag179
asg81
(lp810
g567
ag668
ag473
ag525
ag193
asg82
(lp811
g190
ag589
asg83
(lp812
g522
ag227
asg84
(lp813
g351
ag452
ag149
ag303
ag129
asg85
(lp814
g93
ag20
ag31
ag434
asg86
(lp815
g634
asg87
(lp816
g494
ag240
asg88
(lp817
g237
ag596
ag537
ag61
asg89
(lp818
g524
ag619
ag236
asg90
(lp819
g132
ag127
ag644
asg91
(lp820
g68
ag43
asg93
(lp821
g20
ag85
ag369
ag60
ag60
ag31
ag476
asg94
(lp822
g243
ag619
ag575
asg95
(lp823
g702
ag534
asg96
(lp824
g728
asg97
(lp825
g541
ag220
asg98
(lp826
g638
ag256
ag32
asg99
(lp827
g145
ag630
ag320
asg100
(lp828
g709
asg102
(lp829
g293
ag158
ag562
asg618
(lp830
g583
ag158
ag566
ag284
ag293
asg104
(lp831
g438
ag402
ag71
asg106
(lp832
g541
ag271
asg107
(lp833
g414
ag620
ag654
ag217
ag664
ag379
asg108
(lp834
g157
ag142
ag16
ag232
asg109
(lp835
g213
ag256
ag535
ag354
ag235
ag422
ag32
asg110
(lp836
g52
ag128
asg111
(lp837
g318
ag381
asg112
(lp838
g554
asg113
(lp839
g540
ag269
asg114
(lp840
g315
ag643
asg115
(lp841
g173
ag35
ag578
ag263
asg116
(lp842
g186
ag397
ag647
ag680
ag409
ag640
ag69
ag313
ag472
asg117
(lp843
g8
ag159
ag24
ag657
ag68
ag467
asg118
(lp844
g309
asg119
(lp845
g628
asg120
(lp846
g322
ag615
asg121
(lp847
g248
ag582
asg20
(lp848
g93
ag85
asg123
(lp849
g539
ag682
asg124
(lp850
g40
ag249
asg125
(lp851
g344
ag58
asg126
(lp852
g436
ag49
ag188
ag42
ag152
asg127
(lp853
g455
ag148
ag219
ag226
ag694
ag299
ag424
ag230
ag334
ag10
ag90
ag132
ag311
asg128
(lp854
g625
ag110
ag617
asg129
(lp855
g351
ag383
ag84
asg376
(lp856
g455
ag614
ag363
asg131
(lp857
g27
ag694
ag162
asg132
(lp858
g644
ag90
ag127
ag311
ag600
ag462
asg379
(lp859
g217
ag107
ag664
ag217
ag141
ag13
asg134
(lp860
g202
ag330
ag488
ag101
ag352
ag352
ag183
asg136
(lp861
g407
ag380
ag243
asg137
(lp862
g66
asg198
(lp863
g434
asg139
(lp864
g403
ag427
asg141
(lp865
g339
ag385
ag564
ag217
ag13
ag379
asg381
(lp866
g300
ag280
ag459
ag318
ag111
asg143
(lp867
g637
ag637
ag413
ag658
asg144
(lp868
g192
ag45
ag156
asg145
(lp869
g99
ag630
ag52
ag458
asg146
(lp870
g691
ag336
asg147
(lp871
g414
ag217
ag494
ag64
ag332
ag446
ag608
ag523
ag704
ag546
asg148
(lp872
g127
ag404
ag55
ag215
ag614
ag455
asg149
(lp873
g452
ag84
ag577
asg150
(lp874
g704
ag546
ag479
ag292
ag704
ag6
ag292
asg151
(lp875
g697
ag689
ag398
ag544
asg549
(lp876
g19
ag509
ag207
asg153
(lp877
g512
ag418
ag595
ag577
asg154
(lp878
g10
ag175
ag604
ag508
asg155
(lp879
g74
ag395
ag191
ag425
ag616
asg156
(lp880
g45
ag144
asg157
(lp881
g232
ag108
ag364
ag31
ag247
ag33
ag612
asg158
(lp882
g293
ag618
ag102
ag562
ag421
ag200
ag583
ag50
asg159
(lp883
g117
ag8
asg633
(lp884
g511
ag189
asg255
(lp885
g608
ag523
asg161
(lp886
g41
ag44
ag76
asg162
(lp887
g226
ag694
ag131
ag21
ag214
ag514
ag325
ag545
asg163
(lp888
g4
asg164
(lp889
g417
asg165
(lp890
g29
ag237
ag220
ag527
asg166
(lp891
g172
ag441
ag249
ag39
ag663
ag275
asg167
(lp892
g266
ag351
ag484
ag461
ag229
ag349
ag605
ag511
ag301
ag122
asg168
(lp893
g484
ag723
ag722
ag290
ag606
asg169
(lp894
g496
ag355
ag382
asg170
(lp895
g424
ag299
asg171
(lp896
g103
ag235
ag729
ag587
ag711
asg172
(lp897
g219
ag40
ag249
ag166
ag441
ag452
ag205
ag583
asg173
(lp898
g115
ag35
ag499
ag306
asg174
(lp899
g696
ag671
asg175
(lp900
g316
ag604
ag27
ag70
ag154
asg176
(lp901
g511
ag301
asg177
(lp902
g270
ag597
asg178
(lp903
g651
asg179
(lp904
g601
ag80
asg181
(lp905
g384
ag503
ag367
ag384
ag223
ag265
asg182
(lp906
g477
ag185
asg183
(lp907
g234
ag488
ag134
ag310
ag352
asg184
(lp908
g60
ag483
asg185
(lp909
g592
ag182
asg186
(lp910
g687
ag493
ag460
ag78
ag651
ag410
ag209
ag641
ag38
ag57
ag309
ag203
ag556
ag241
ag559
ag456
ag388
ag397
ag116
ag69
asg187
(lp911
g628
ag333
asg188
(lp912
g573
ag666
ag49
ag152
ag126
asg189
(lp913
g511
ag633
ag383
asg190
(lp914
g666
ag49
ag589
ag82
asg191
(lp915
g266
ag12
ag521
ag484
ag425
ag155
ag74
asg192
(lp916
g506
ag337
ag216
ag401
ag695
ag337
ag221
ag343
ag45
ag144
ag445
ag552
ag615
ag322
asg193
(lp917
g529
ag525
ag81
asg195
(lp918
g260
ag462
ag600
asg196
(lp919
g570
ag211
asg197
(lp920
g629
asg199
(lp921
g704
ag323
ag79
ag704
ag47
ag47
ag257
asg639
(lp922
g685
ag498
ag194
asg200
(lp923
g158
ag421
asg201
(lp924
g346
ag269
ag429
asg389
(lp925
g23
ag572
asg203
(lp926
g649
ag69
ag186
ag216
ag71
ag402
ag556
ag328
ag216
ag570
asg204
(lp927
g268
ag721
asg205
(lp928
g172
ag452
ag583
ag595
ag418
asg206
(lp929
g318
asg207
(lp930
g509
ag549
asg622
(lp931
g704
ag390
ag704
asg209
(lp932
g186
ag641
ag366
ag410
asg210
(lp933
g547
ag598
ag414
ag3
ag62
ag58
asg211
(lp934
g216
ag570
ag196
ag216
ag717
asg212
(lp935
g39
ag573
asg213
(lp936
g109
ag256
ag638
ag703
ag536
asg214
(lp937
g551
ag226
ag698
ag162
ag325
ag194
ag498
asg215
(lp938
g148
ag404
ag555
asg216
(lp939
g343
ag720
ag464
ag695
ag406
ag402
ag203
ag695
ag192
ag203
ag570
ag211
ag211
ag717
ag285
ag679
asg217
(lp940
g147
ag704
ag414
ag107
ag379
ag379
ag141
ag704
ag697
ag564
ag432
asg218
(lp941
g578
ag401
ag684
asg219
(lp942
g283
ag681
ag470
ag172
ag441
ag386
ag308
ag311
ag127
ag10
ag643
ag350
asg220
(lp943
g237
ag541
ag97
ag527
ag165
asg221
(lp944
g192
ag552
ag598
ag611
ag668
ag264
ag337
ag473
ag655
asg222
(lp945
g377
ag696
asg223
(lp946
g496
ag384
ag265
ag181
asg224
(lp947
g608
ag608
ag431
asg225
(lp948
g607
asg226
(lp949
g214
ag55
ag551
ag127
ag694
ag162
asg227
(lp950
g348
ag242
ag628
ag522
ag83
asg25
(lp951
g396
ag532
ag133
ag336
ag691
asg229
(lp952
g167
asg35
(lp953
g173
ag499
ag695
ag401
ag115
ag578
asg231
(lp954
g565
asg232
(lp955
g157
ag108
asg233
(lp956
g300
ag437
asg234
(lp957
g416
ag310
ag183
ag488
ag530
ag5
ag530
ag676
asg235
(lp958
g692
ag711
ag171
ag354
ag109
ag422
asg236
(lp959
g619
ag89
asg237
(lp960
g88
ag537
ag405
ag29
ag451
ag699
ag678
ag478
ag541
ag220
ag165
asg238
(lp961
g645
asg239
(lp962
g358
ag441
ag526
ag63
asg75
(lp963
g314
asg241
(lp964
g651
ag186
ag556
ag486
asg263
(lp965
g578
ag115
asg243
(lp966
g619
ag94
ag439
ag516
ag136
asg244
(lp967
g51
ag524
asg245
(lp968
g333
ag262
asg105
(lp969
g601
asg396
(lp970
g25
ag532
ag470
ag681
ag650
ag624
ag336
asg249
(lp971
g172
ag40
ag166
ag124
asg250
(lp972
g152
asg251
(lp973
g663
asg252
(lp974
g720
ag343
ag7
ag517
asg253
(lp975
g294
ag56
ag588
asg254
(lp976
g538
ag716
asg160
(lp977
g278
asg256
(lp978
g109
ag213
ag638
ag32
ag98
asg122
(lp979
g167
ag301
ag374
asg258
(lp980
g648
ag468
ag728
ag519
asg259
(lp981
g266
ag625
ag630
ag630
ag268
ag635
ag463
ag478
ag632
ag375
ag599
asg260
(lp982
g195
ag462
ag311
ag312
ag353
asg261
(lp983
g580
ag36
asg401
(lp984
g218
ag684
ag192
ag695
ag578
ag35
asg242
(lp985
g227
ag628
ag505
ag348
asg264
(lp986
g387
ag37
ag221
ag337
ag76
ag44
asg265
(lp987
g223
ag181
asg266
(lp988
g351
ag167
ag484
ag484
ag191
ag259
ag625
ag443
asg267
(lp989
g565
asg268
(lp990
g259
ag630
ag721
ag204
ag635
asg269
(lp991
g540
ag113
ag201
ag429
asg270
(lp992
g177
ag431
ag368
asg271
(lp993
g478
ag281
ag478
ag541
ag106
asg272
(lp994
g492
ag665
ag447
ag300
ag707
ag518
asg273
(lp995
g419
ag689
asg152
(lp996
g250
ag188
ag126
ag42
asg275
(lp997
g39
ag39
ag166
ag718
ag663
asg276
(lp998
g538
asg553
(lp999
g662
ag610
asg277
(lp1000
g357
ag432
asg278
(lp1001
g160
ag648
asg279
(lp1002
g583
asg280
(lp1003
g602
ag300
ag381
ag372
ag246
ag459
asg281
(lp1004
g478
ag490
ag478
ag271
asg282
(lp1005
g92
ag676
ag530
ag667
ag448
asg283
(lp1006
g219
ag681
ag341
asg404
(lp1007
g148
ag55
ag501
ag215
ag555
asg135
(lp1008
g697
ag544
ag693
ag415
ag399
asg286
(lp1009
g591
ag360
asg287
(lp1010
g457
ag655
ag502
asg288
(lp1011
g322
ag326
asg289
(lp1012
g660
ag61
ag537
asg290
(lp1013
g168
ag722
asg291
(lp1014
g3
ag547
ag524
ag548
ag51
asg292
(lp1015
g150
ag150
asg293
(lp1016
g102
ag158
ag618
ag284
asg294
(lp1017
g253
asg295
(lp1018
g715
asg296
(lp1019
g306
asg297
(lp1020
g720
ag646
ag588
asg298
(lp1021
g12
ag550
asg299
(lp1022
g455
ag127
ag424
ag170
asg274
(lp1023
g614
asg302
(lp1024
g11
ag391
asg303
(lp1025
g84
asg304
(lp1026
g543
asg306
(lp1027
g296
ag499
ag173
asg307
(lp1028
g520
asg308
(lp1029
g219
ag513
ag495
ag474
ag386
ag331
ag485
ag312
ag311
asg309
(lp1030
g687
ag186
ag118
ag57
asg310
(lp1031
g234
ag183
ag352
ag416
ag471
asg311
(lp1032
g219
ag308
ag312
ag260
ag127
ag462
ag132
asg312
(lp1033
g308
ag311
ag353
ag260
asg101
(lp1034
g134
ag352
asg314
(lp1035
g75
ag19
ag423
ag444
ag515
asg315
(lp1036
g10
ag643
ag114
ag709
ag341
asg316
(lp1037
g175
ag327
asg659
(lp1038
g718
asg317
(lp1039
g507
ag590
ag574
ag371
ag420
asg318
(lp1040
g206
ag300
ag437
ag381
ag111
asg46
(lp1041
g610
asg320
(lp1042
g630
ag99
asg661
(lp1043
g666
asg322
(lp1044
g288
ag326
ag192
ag615
ag120
ag53
ag445
ag579
ag53
asg323
(lp1045
g704
ag677
ag199
ag79
asg324
(lp1046
g10
ag334
ag27
asg538
(lp1047
g276
ag668
ag611
ag254
ag716
asg326
(lp1048
g322
ag466
ag11
ag288
ag208
asg327
(lp1049
g514
ag316
asg328
(lp1050
g203
ag335
ag556
ag15
asg329
(lp1051
g14
ag703
ag305
asg330
(lp1052
g134
ag488
ag500
ag202
ag373
ag623
asg331
(lp1053
g495
ag308
ag485
asg332
(lp1054
g228
ag147
ag446
asg333
(lp1055
g187
ag262
ag245
ag628
ag500
ag656
ag450
asg334
(lp1056
g694
ag127
ag10
ag27
ag324
asg335
(lp1057
g570
ag328
asg539
(lp1058
g487
ag123
ag682
ag560
asg682
(lp1059
g123
ag539
asg60
(lp1060
g184
ag93
ag369
ag93
asg707
(lp1061
g272
ag460
ag518
asg338
(lp1062
g613
ag496
asg339
(lp1063
g141
ag385
ag652
asg340
(lp1064
g347
ag580
asg342
(lp1065
g472
ag69
ag649
asg343
(lp1066
g216
ag720
ag192
ag45
ag517
ag252
asg344
(lp1067
g125
asg345
(lp1068
g400
ag603
ag481
asg346
(lp1069
g201
ag469
asg347
(lp1070
g340
asg348
(lp1071
g227
ag242
asg349
(lp1072
g167
asg350
(lp1073
g219
ag643
asg666
(lp1074
g188
ag49
ag190
ag573
ag39
ag441
ag661
ag594
ag358
asg352
(lp1075
g134
ag101
ag134
ag183
ag471
ag310
asg285
(lp1076
g717
ag216
asg354
(lp1077
g235
ag109
ag535
asg355
(lp1078
g496
ag169
ag5
ag440
ag92
asg356
(lp1079
g388
ag456
asg357
(lp1080
g697
ag277
ag432
ag689
ag48
asg180
(lp1081
g582
ag248
ag531
asg359
(lp1082
g561
ag56
asg360
(lp1083
g574
ag591
ag286
ag321
asg361
(lp1084
g78
ag651
ag130
asg362
(lp1085
g653
ag432
ag564
ag652
ag385
asg363
(lp1086
g614
ag376
asg669
(lp1087
g587
ag453
asg365
(lp1088
g494
ag706
asg366
(lp1089
g563
ag209
ag410
asg367
(lp1090
g660
ag384
ag181
ag503
asg368
(lp1091
g608
ag431
ag270
ag608
asg415
(lp1092
g135
ag399
asg370
(lp1093
g433
asg371
(lp1094
g317
ag420
asg372
(lp1095
g602
ag280
asg373
(lp1096
g330
ag202
ag623
ag9
asg374
(lp1097
g301
ag122
asg375
(lp1098
g259
ag632
ag557
ag599
asg130
(lp1099
g361
ag603
asg377
(lp1100
g222
asg378
(lp1101
g471
asg133
(lp1102
g637
ag590
ag532
ag691
ag25
asg380
(lp1103
g688
ag136
asg142
(lp1104
g108
ag16
ag18
asg382
(lp1105
g496
ag169
asg383
(lp1106
g511
ag129
ag189
asg384
(lp1107
g496
ag660
ag367
ag181
ag181
ag223
asg385
(lp1108
g141
ag564
ag362
ag339
ag652
asg386
(lp1109
g441
ag219
ag308
ag526
ag474
asg418
(lp1110
g583
ag205
ag153
ag595
ag512
asg388
(lp1111
g186
ag356
ag456
ag397
asg202
(lp1112
g134
ag330
ag373
asg390
(lp1113
g6
ag704
ag636
ag510
ag622
asg391
(lp1114
g11
ag670
ag533
ag302
asg392
(lp1115
g684
ag506
ag65
asg393
(lp1116
g576
ag580
asg394
(lp1117
g397
ag647
ag491
asg246
(lp1118
g280
ag459
asg247
(lp1119
g157
asg397
(lp1120
g186
ag394
ag647
ag116
ag388
asg398
(lp1121
g689
ag151
asg399
(lp1122
g584
ag693
ag135
ag415
asg400
(lp1123
g345
asg262
(lp1124
g333
ag245
asg402
(lp1125
g216
ag203
ag104
ag71
ag438
ag406
asg403
(lp1126
g696
ag585
ag621
ag427
ag139
asg284
(lp1127
g618
ag293
asg405
(lp1128
g237
ag581
ag537
asg248
(lp1129
g705
ag121
ag531
ag180
asg407
(lp1130
g136
ag688
asg408
(lp1131
g698
ag551
ag22
asg409
(lp1132
g680
ag116
ag640
asg410
(lp1133
g186
ag209
ag366
asg411
(lp1134
g461
ag73
asg337
(lp1135
g192
ag726
ag44
ag65
ag506
ag192
ag221
ag44
ag264
asg413
(lp1136
g480
ag507
ag637
ag658
ag143
asg414
(lp1137
g494
ag147
ag598
ag210
ag58
ag107
ag217
ag558
ag520
asg369
(lp1138
g93
ag60
asg695
(lp1139
g216
ag499
ag482
ag464
ag216
ag192
ag35
ag401
asg416
(lp1140
g234
ag310
ag471
asg417
(lp1141
g59
ag164
ag406
asg387
(lp1142
g76
ag264
ag37
asg419
(lp1143
g273
asg420
(lp1144
g574
ag317
ag371
asg421
(lp1145
g562
ag158
ag200
asg422
(lp1146
g235
ag109
asg424
(lp1147
g430
ag230
ag127
ag170
ag299
asg423
(lp1148
g504
ag19
ag515
ag314
asg425
(lp1149
g484
ag606
ag191
ag155
ag616
asg426
(lp1150
g591
ag522
asg427
(lp1151
g696
ag403
ag139
asg300
(lp1152
g280
ag381
ag272
ag447
ag602
ag665
ag233
ag437
ag318
asg429
(lp1153
g269
ag201
asg430
(lp1154
g424
ag230
asg555
(lp1155
g77
ag501
ag404
ag215
asg432
(lp1156
g357
ag277
ag697
ag217
ag362
ag564
asg433
(lp1157
g370
asg434
(lp1158
g198
ag31
ag85
asg435
(lp1159
g490
ag478
ag632
asg436
(lp1160
g42
ag126
ag49
ag701
asg437
(lp1161
g300
ag318
ag233
ag674
asg438
(lp1162
g104
ag402
ag406
asg439
(lp1163
g243
asg440
(lp1164
g355
ag92
asg441
(lp1165
g239
ag526
ag386
ag219
ag172
ag166
ag39
ag666
ag358
asg442
(lp1166
g542
ag723
ag727
asg443
(lp1167
g12
ag550
ag266
ag625
ag631
ag626
asg528
(lp1168
g64
ag240
asg444
(lp1169
g314
ag515
asg445
(lp1170
g192
ag322
ag579
asg446
(lp1171
g147
ag608
ag332
asg557
(lp1172
g632
ag375
asg428
(lp1173
g690
ag495
asg301
(lp1174
g167
ag511
ag176
ag122
ag374
asg449
(lp1175
g712
asg450
(lp1176
g714
ag500
ag333
ag656
asg451
(lp1177
g237
ag699
ag29
asg452
(lp1178
g351
ag172
ag84
ag149
ag577
ag595
ag205
asg453
(lp1179
g103
ag587
ag669
asg454
(lp1180
g671
ag514
ag545
asg455
(lp1181
g299
ag127
ag148
ag376
ag614
asg456
(lp1182
g186
ag388
ag559
ag356
asg457
(lp1183
g287
ag655
ag525
ag529
asg458
(lp1184
g52
ag145
asg459
(lp1185
g381
ag280
ag246
asg460
(lp1186
g186
ag78
ag707
asg461
(lp1187
g167
ag484
ag723
ag727
ag411
ag73
asg462
(lp1188
g260
ag311
ag132
ag195
ag600
asg463
(lp1189
g259
ag635
asg464
(lp1190
g216
ag406
ag695
ag30
ag482
asg465
(lp1191
g719
ag582
asg662
(lp1192
g553
ag34
asg467
(lp1193
g68
ag117
asg468
(lp1194
g258
ag648
ag14
asg469
(lp1195
g346
ag688
asg470
(lp1196
g219
ag591
ag628
ag681
ag396
ag532
ag590
asg471
(lp1197
g378
ag352
ag310
ag416
asg472
(lp1198
g342
ag69
ag116
ag313
asg473
(lp1199
g668
ag221
ag655
ag81
ag525
asg474
(lp1200
g513
ag308
ag386
ag63
ag526
asg475
(lp1201
g593
asg476
(lp1202
g93
ag31
asg477
(lp1203
g182
ag59
asg478
(lp1204
g259
ag632
ag435
ag490
ag281
ag281
ag271
ag237
ag271
ag541
asg6
(lp1205
g390
ag636
ag704
ag150
asg480
(lp1206
g413
ag507
ag80
asg18
(lp1207
g16
ag26
ag142
asg482
(lp1208
g499
ag695
ag464
ag672
ag30
asg687
(lp1209
g309
ag186
ag493
ag319
asg484
(lp1210
g266
ag167
ag461
ag723
ag266
ag191
ag425
ag723
ag168
ag606
asg33
(lp1211
g31
ag157
ag612
asg486
(lp1212
g556
ag241
asg487
(lp1213
g560
ag539
asg488
(lp1214
g234
ag5
ag183
ag134
ag330
ag500
asg489
(lp1215
g583
ag40
asg57
(lp1216
g186
ag38
ag309
asg491
(lp1217
g394
asg492
(lp1218
g518
ag272
ag665
ag712
asg493
(lp1219
g186
ag687
asg494
(lp1220
g414
ag147
ag706
ag365
ag87
ag240
ag64
asg495
(lp1221
g331
ag308
ag690
ag513
ag428
asg496
(lp1222
g223
ag384
ag382
ag169
ag355
ag5
ag629
ag543
ag338
asg497
(lp1223
g598
ag547
ag412
ag700
ag571
asg498
(lp1224
g325
ag696
ag214
ag194
ag639
asg499
(lp1225
g35
ag672
ag482
ag695
ag306
ag173
asg690
(lp1226
g428
ag495
ag513
asg501
(lp1227
g77
ag22
ag551
ag55
ag555
ag404
asg502
(lp1228
g412
ag655
ag287
asg503
(lp1229
g181
ag367
asg504
(lp1230
g423
ag515
ag26
ag645
ag16
asg505
(lp1231
g628
ag242
asg506
(lp1232
g192
ag684
ag337
ag392
ag65
asg507
(lp1233
g590
ag317
ag480
ag80
ag413
ag637
ag80
ag601
asg508
(lp1234
g154
asg509
(lp1235
g19
ag549
ag207
asg510
(lp1236
g390
asg511
(lp1237
g383
ag189
ag633
ag351
ag167
ag301
ag176
asg512
(lp1238
g153
ag418
asg513
(lp1239
g474
ag308
ag495
ag690
asg313
(lp1240
g640
ag116
ag472
asg514
(lp1241
g21
ag327
ag671
ag162
ag545
ag454
asg515
(lp1242
g504
ag423
ag314
ag444
asg516
(lp1243
g619
ag243
asg517
(lp1244
g343
ag252
asg518
(lp1245
g492
ag272
ag707
asg519
(lp1246
g648
ag258
asg520
(lp1247
g307
ag620
ag414
ag534
ag558
ag673
asg521
(lp1248
g191
ag12
asg522
(lp1249
g628
ag591
ag426
ag83
ag227
asg523
(lp1250
g608
ag147
ag255
asg524
(lp1251
g89
ag3
ag51
ag291
ag244
asg525
(lp1252
g655
ag473
ag193
ag81
ag529
ag457
asg564
(lp1253
g141
ag217
ag432
ag385
ag362
asg526
(lp1254
g441
ag386
ag474
ag239
ag63
asg693
(lp1255
g697
ag593
ag135
ag399
asg527
(lp1256
g220
ag165
asg138
(lp1257
g678
ag678
asg529
(lp1258
g193
ag525
ag457
asg530
(lp1259
g234
ag448
ag234
ag676
ag448
ag282
asg531
(lp1260
g248
ag180
asg532
(lp1261
g396
ag470
ag590
ag25
ag133
asg533
(lp1262
g391
ag607
ag670
asg534
(lp1263
g713
ag673
ag520
ag558
ag702
ag95
asg535
(lp1264
g109
ag354
asg536
(lp1265
g703
ag213
asg537
(lp1266
g237
ag88
ag61
ag405
ag289
asg325
(lp1267
g214
ag498
ag162
ag696
asg336
(lp1268
g396
ag25
ag691
ag146
asg540
(lp1269
g269
ag113
ag28
asg541
(lp1270
g237
ag478
ag271
ag106
ag97
ag220
asg240
(lp1271
g494
ag64
ag528
ag87
asg542
(lp1272
g442
ag723
asg543
(lp1273
g304
ag496
asg544
(lp1274
g697
ag151
ag135
asg319
(lp1275
g687
asg546
(lp1276
g147
ag704
ag150
ag479
asg547
(lp1277
g598
ag210
ag571
ag497
ag548
ag291
asg548
(lp1278
g547
ag291
ag51
asg406
(lp1279
g30
ag464
ag417
ag216
ag402
ag438
asg551
(lp1280
g214
ag226
ag22
ag408
ag501
ag55
asg552
(lp1281
g221
ag702
ag192
ag615
ag67
ag724
asg447
(lp1282
g272
ag300
asg395
(lp1283
g155
ag74
asg431
(lp1284
g608
ag224
ag609
ag597
ag608
ag368
ag270
asg556
(lp1285
g186
ag203
ag241
ag486
ag328
ag15
asg448
(lp1286
g530
ag530
ag282
ag667
asg558
(lp1287
g598
ag414
ag520
ag702
ag534
asg559
(lp1288
g186
ag456
asg560
(lp1289
g487
ag539
asg561
(lp1290
g359
asg562
(lp1291
g158
ag421
ag102
asg563
(lp1292
g366
asg194
(lp1293
g214
ag498
ag639
asg565
(lp1294
g267
ag231
asg566
(lp1295
g675
ag583
ag618
asg567
(lp1296
g81
ag668
ag708
asg568
(lp1297
g619
ag3
ag62
asg569
(lp1298
g610
asg570
(lp1299
g335
ag203
ag216
ag211
ag196
asg571
(lp1300
g547
ag497
ag700
asg702
(lp1301
g598
ag552
ag724
ag558
ag95
ag534
asg572
(lp1302
g704
ag725
ag23
ag389
asg573
(lp1303
g188
ag666
ag39
ag212
asg574
(lp1304
g321
ag360
ag591
ag590
ag317
ag420
asg575
(lp1305
g619
ag94
asg576
(lp1306
g393
asg577
(lp1307
g452
ag149
ag595
ag153
asg578
(lp1308
g218
ag401
ag35
ag263
ag115
asg579
(lp1309
g322
ag445
asg580
(lp1310
g36
ag261
ag340
ag393
asg581
(lp1311
g678
ag405
asg583
(lp1312
g172
ag279
ag418
ag205
ag40
ag489
ag566
ag618
ag158
ag50
asg584
(lp1313
g399
asg585
(lp1314
g403
ag621
ag24
asg586
(lp1315
g628
asg587
(lp1316
g103
ag669
ag453
ag171
ag729
asg588
(lp1317
g720
ag297
ag720
ag56
ag253
asg589
(lp1318
g701
ag49
ag190
ag82
asg590
(lp1319
g637
ag507
ag470
ag133
ag532
ag591
ag317
ag574
asg591
(lp1320
g470
ag628
ag590
ag574
ag360
ag286
ag426
ag522
asg592
(lp1321
g185
asg593
(lp1322
g23
ag697
ag693
ag475
asg594
(lp1323
g666
ag358
asg595
(lp1324
g452
ag205
ag418
ag577
ag153
asg596
(lp1325
g660
ag88
ag61
asg597
(lp1326
g431
ag177
ag609
asg598
(lp1327
g702
ag558
ag655
ag221
ag412
ag497
ag547
ag210
ag414
asg599
(lp1328
g259
ag375
asg708
(lp1329
g668
ag567
asg600
(lp1330
g644
ag132
ag462
ag195
asg721
(lp1331
g630
ag268
ag204
asg601
(lp1332
g105
ag507
ag179
ag80
asg602
(lp1333
g280
ag300
ag372
asg353
(lp1334
g312
ag260
asg603
(lp1335
g481
ag345
ag130
asg32
(lp1336
g109
ag256
ag98
asg605
(lp1337
g167
asg606
(lp1338
g484
ag168
ag425
asg607
(lp1339
g225
ag533
asg485
(lp1340
g308
ag331
asg609
(lp1341
g431
ag597
asg610
(lp1342
g46
ag553
ag569
asg611
(lp1343
g221
ag37
ag668
ag716
ag538
asg612
(lp1344
g157
ag33
asg613
(lp1345
g338
asg614
(lp1346
g274
ag148
ag455
ag363
ag376
asg615
(lp1347
g192
ag322
ag552
ag120
asg616
(lp1348
g425
ag155
asg617
(lp1349
g631
ag625
ag128
asg103
(lp1350
g453
ag587
ag171
ag692
asg619
(lp1351
g3
ag568
ag89
ag236
ag516
ag243
ag575
ag94
asg620
(lp1352
g520
ag107
asg621
(lp1353
g403
ag585
ag24
asg623
(lp1354
g500
ag330
ag9
ag373
asg624
(lp1355
g54
ag396
ag650
asg625
(lp1356
g266
ag259
ag443
ag631
ag617
ag128
ag630
ag52
asg626
(lp1357
g443
ag631
asg627
(lp1358
g27
asg628
(lp1359
g470
ag591
ag522
ag227
ag242
ag505
ag586
ag119
ag187
ag333
ag500
asg629
(lp1360
g197
ag496
asg630
(lp1361
g259
ag625
ag52
ag145
ag259
ag99
ag320
ag268
ag721
asg631
(lp1362
g617
ag625
ag443
ag626
asg632
(lp1363
g259
ag478
ag375
ag557
ag435
asg140
(lp1364
g31
ag364
asg634
(lp1365
g683
ag86
ag683
asg635
(lp1366
g259
ag463
ag268
asg636
(lp1367
g6
ag390
asg637
(lp1368
g691
ag133
ag590
ag143
ag507
ag143
ag413
asg638
(lp1369
g213
ag703
ag305
ag256
ag98
asg554
(lp1370
g112
ag72
ag28
asg640
(lp1371
g313
ag116
ag409
asg641
(lp1372
g186
ag36
ag38
ag209
asg642
(lp1373
g24
asg643
(lp1374
g219
ag10
ag315
ag114
ag350
asg644
(lp1375
g600
ag132
ag90
asg645
(lp1376
g238
ag504
ag16
ag715
asg646
(lp1377
g720
ag297
asg647
(lp1378
g397
ag394
ag116
ag680
asg648
(lp1379
g519
ag258
ag703
ag14
ag468
ag278
asg649
(lp1380
g71
ag203
ag69
ag342
asg650
(lp1381
g681
ag396
ag624
asg651
(lp1382
g186
ag241
ag78
ag361
ag178
asg652
(lp1383
g362
ag385
ag339
asg653
(lp1384
g362
asg654
(lp1385
g107
asg655
(lp1386
g598
ag287
ag502
ag221
ag457
ag525
ag473
asg656
(lp1387
g333
ag450
asg657
(lp1388
g117
ag24
asg658
(lp1389
g413
ag143
asg545
(lp1390
g514
ag162
ag454
asg660
(lp1391
g289
ag61
ag596
ag367
ag384
asg321
(lp1392
g574
ag360
asg663
(lp1393
g251
ag166
ag275
ag718
asg664
(lp1394
g107
ag379
asg665
(lp1395
g272
ag300
ag492
ag712
asg351
(lp1396
g452
ag84
ag129
ag266
ag167
ag511
asg667
(lp1397
g92
ag282
ag448
asg208
(lp1398
g11
ag326
asg364
(lp1399
g157
ag31
ag140
asg670
(lp1400
g11
ag391
ag533
asg672
(lp1401
g499
ag482
ag30
asg673
(lp1402
g534
ag520
ag713
asg674
(lp1403
g437
asg675
(lp1404
g566
asg676
(lp1405
g92
ag5
ag234
ag282
ag530
asg677
(lp1406
g704
ag323
asg678
(lp1407
g581
ag237
ag699
ag17
ag138
ag138
asg305
(lp1408
g638
ag703
ag329
asg680
(lp1409
g409
ag116
ag647
asg681
(lp1410
g219
ag283
ag341
ag710
ag470
ag650
ag396
asg341
(lp1411
g681
ag315
ag710
ag283
asg683
(lp1412
g7
ag720
ag56
ag634
ag634
asg466
(lp1413
g326
ag11
asg685
(lp1414
g639
asg686
(lp1415
g58
ag706
asg483
(lp1416
g184
asg688
(lp1417
g380
ag407
ag469
asg689
(lp1418
g697
ag48
ag357
ag697
ag398
ag151
ag273
ag4
asg500
(lp1419
g628
ag333
ag450
ag488
ag714
ag623
ag330
asg691
(lp1420
g637
ag133
ag25
ag146
ag336
asg692
(lp1421
g235
ag103
asg412
(lp1422
g502
ag598
ag700
ag497
asg694
(lp1423
g334
ag27
ag127
ag226
ag162
ag131
asg257
(lp1424
g725
ag704
ag199
asg696
(lp1425
g403
ag427
ag498
ag671
ag174
ag325
ag222
asg697
(lp1426
g704
ag135
ag693
ag593
ag357
ag689
ag432
ag217
ag689
ag151
ag544
asg698
(lp1427
g408
ag214
asg699
(lp1428
g237
ag678
ag17
ag451
asg700
(lp1429
g412
ag497
ag571
asg701
(lp1430
g589
ag49
ag436
asg679
(lp1431
g216
asg703
(lp1432
g648
ag14
ag536
ag213
ag638
ag305
ag329
asg704
(lp1433
g217
ag147
ag546
ag150
ag217
ag697
ag23
ag572
ag150
ag6
ag390
ag622
ag622
ag677
ag323
ag199
ag199
ag257
asg705
(lp1434
g248
asg706
(lp1435
g58
ag494
ag365
ag686
asg582
(lp1436
g180
ag719
ag121
ag465
asg550
(lp1437
g443
ag12
ag298
asg709
(lp1438
g100
ag315
asg710
(lp1439
g681
ag341
asg711
(lp1440
g235
ag171
asg712
(lp1441
g449
ag665
ag492
asg713
(lp1442
g534
ag673
asg714
(lp1443
g450
ag500
asg715
(lp1444
g295
ag16
ag645
asg716
(lp1445
g37
ag611
ag538
ag254
asg717
(lp1446
g285
ag216
ag211
asg718
(lp1447
g659
ag275
ag663
asg719
(lp1448
g465
ag582
asg720
(lp1449
g216
ag343
ag252
ag7
ag683
ag646
ag297
ag588
ag588
ag56
asg671
(lp1450
g454
ag514
ag696
ag174
asg722
(lp1451
g723
ag168
ag290
asg723
(lp1452
g484
ag461
ag727
ag442
ag484
ag542
ag168
ag722
asg724
(lp1453
g702
ag552
ag67
asg725
(lp1454
g257
ag572
asg726
(lp1455
g65
ag337
ag44
asg727
(lp1456
g461
ag73
ag723
ag442
asg728
(lp1457
g258
ag96
asg729
(lp1458
g171
ag587
ass.